; Function Attrs: mustprogress uwtable
define hidden noundef ptr @_ZNK19OpenColorIO_v2_5dev20CTFReaderIndexMapElt11getTypeNameEv(ptr noundef nonnull readonly align 8 captures(none) dereferenceable(108) %0) unnamed_addr #4 align 2 {
  %2 = getelementptr inbounds nuw i8, ptr %0, i64 80
  %3 = load ptr, ptr %2, align 8, !tbaa !75, !nonnull !50, !noundef !50
  %4 = tail call ptr @__dynamic_cast(ptr nonnull %3, ptr nonnull @_ZTIN19OpenColorIO_v2_5dev21XmlReaderContainerEltE, ptr nonnull @_ZTIN19OpenColorIO_v2_5dev14CTFReaderOpEltE, i64 0) #33
  %5 = load ptr, ptr %4, align 8, !tbaa !9
  %6 = getelementptr inbounds nuw i8, ptr %5, i64 48
  %7 = load ptr, ptr %6, align 8
  %8 = tail call noundef ptr %7(ptr noundef nonnull align 8 dereferenceable(104) %4)
  ret ptr %8
}